
STM32F103C8-Drives.elf:     file format elf32-littlearm

Sections:
Idx Name          Size      VMA       LMA       File off  Algn
  0 .isr_vector   00000130  08000000  08000000  00010000  2**0
                  CONTENTS, ALLOC, LOAD, READONLY, DATA
  1 .text         000008ac  08000130  08000130  00010130  2**2
                  CONTENTS, ALLOC, LOAD, READONLY, CODE
  2 .rodata       00000000  080009dc  080009dc  00020014  2**0
                  CONTENTS, ALLOC, LOAD, DATA
  3 .ARM.extab    00000000  080009dc  080009dc  00020014  2**0
                  CONTENTS
  4 .ARM          00000000  080009dc  080009dc  00020014  2**0
                  CONTENTS
  5 .preinit_array 00000000  080009dc  080009dc  00020014  2**0
                  CONTENTS, ALLOC, LOAD, DATA
  6 .init_array   00000004  080009dc  080009dc  000109dc  2**2
                  CONTENTS, ALLOC, LOAD, DATA
  7 .fini_array   00000004  080009e0  080009e0  000109e0  2**2
                  CONTENTS, ALLOC, LOAD, DATA
  8 .data         00000014  20000000  080009e4  00020000  2**2
                  CONTENTS, ALLOC, LOAD, DATA
  9 .bss          000000c4  20000014  080009f8  00020014  2**2
                  ALLOC
 10 ._user_heap_stack 00000600  200000d8  080009f8  000200d8  2**0
                  ALLOC
 11 .ARM.attributes 00000029  00000000  00000000  00020014  2**0
                  CONTENTS, READONLY
 12 .debug_info   00001c80  00000000  00000000  0002003d  2**0
                  CONTENTS, READONLY, DEBUGGING, OCTETS
 13 .debug_abbrev 00000830  00000000  00000000  00021cbd  2**0
                  CONTENTS, READONLY, DEBUGGING, OCTETS
 14 .debug_aranges 00000300  00000000  00000000  000224f0  2**3
                  CONTENTS, READONLY, DEBUGGING, OCTETS
 15 .debug_ranges 00000278  00000000  00000000  000227f0  2**3
                  CONTENTS, READONLY, DEBUGGING, OCTETS
 16 .debug_macro  000012b1  00000000  00000000  00022a68  2**0
                  CONTENTS, READONLY, DEBUGGING, OCTETS
 17 .debug_line   00001ff7  00000000  00000000  00023d19  2**0
                  CONTENTS, READONLY, DEBUGGING, OCTETS
 18 .debug_str    00005544  00000000  00000000  00025d10  2**0
                  CONTENTS, READONLY, DEBUGGING, OCTETS
 19 .comment      00000053  00000000  00000000  0002b254  2**0
                  CONTENTS, READONLY
 20 .debug_frame  000009fc  00000000  00000000  0002b2a8  2**2
                  CONTENTS, READONLY, DEBUGGING, OCTETS

Disassembly of section .text:

08000130 <__do_global_dtors_aux>:
 8000130:	b510      	push	{r4, lr}
 8000132:	4c05      	ldr	r4, [pc, #20]	; (8000148 <__do_global_dtors_aux+0x18>)
 8000134:	7823      	ldrb	r3, [r4, #0]
 8000136:	b933      	cbnz	r3, 8000146 <__do_global_dtors_aux+0x16>
 8000138:	4b04      	ldr	r3, [pc, #16]	; (800014c <__do_global_dtors_aux+0x1c>)
 800013a:	b113      	cbz	r3, 8000142 <__do_global_dtors_aux+0x12>
 800013c:	4804      	ldr	r0, [pc, #16]	; (8000150 <__do_global_dtors_aux+0x20>)
 800013e:	f3af 8000 	nop.w
 8000142:	2301      	movs	r3, #1
 8000144:	7023      	strb	r3, [r4, #0]
 8000146:	bd10      	pop	{r4, pc}
 8000148:	20000014 	.word	0x20000014
 800014c:	00000000 	.word	0x00000000
 8000150:	080009c4 	.word	0x080009c4

08000154 <frame_dummy>:
 8000154:	b508      	push	{r3, lr}
 8000156:	4b03      	ldr	r3, [pc, #12]	; (8000164 <frame_dummy+0x10>)
 8000158:	b11b      	cbz	r3, 8000162 <frame_dummy+0xe>
 800015a:	4903      	ldr	r1, [pc, #12]	; (8000168 <frame_dummy+0x14>)
 800015c:	4803      	ldr	r0, [pc, #12]	; (800016c <frame_dummy+0x18>)
 800015e:	f3af 8000 	nop.w
 8000162:	bd08      	pop	{r3, pc}
 8000164:	00000000 	.word	0x00000000
 8000168:	20000018 	.word	0x20000018
 800016c:	080009c4 	.word	0x080009c4

08000170 <App_voidstartApp>:




void App_voidstartApp(void)
{
 8000170:	b480      	push	{r7}
 8000172:	af00      	add	r7, sp, #0
#elif(APPLICATION == HLEDMRX_TEST)

#else
#error("Wrong Unit Testing");
#endif
}
 8000174:	bf00      	nop
 8000176:	46bd      	mov	sp, r7
 8000178:	bc80      	pop	{r7}
 800017a:	4770      	bx	lr

0800017c <ADC1_2_IRQHandler>:
/********************************************************************************
 * HANDLEAR IMPLEMENTATION
 ********************************************************************************/

void ADC1_2_IRQHandler(void)
{
 800017c:	b580      	push	{r7, lr}
 800017e:	af00      	add	r7, sp, #0
	if (ADC_CallBack != NULL)
 8000180:	4b07      	ldr	r3, [pc, #28]	; (80001a0 <ADC1_2_IRQHandler+0x24>)
 8000182:	681b      	ldr	r3, [r3, #0]
 8000184:	2b00      	cmp	r3, #0
 8000186:	d008      	beq.n	800019a <ADC1_2_IRQHandler+0x1e>
	{
		if (GET_BIT(ADC->ADC_SR, EOC))
 8000188:	4b06      	ldr	r3, [pc, #24]	; (80001a4 <ADC1_2_IRQHandler+0x28>)
 800018a:	681b      	ldr	r3, [r3, #0]
 800018c:	085b      	lsrs	r3, r3, #1
 800018e:	f003 0301 	and.w	r3, r3, #1
 8000192:	2b00      	cmp	r3, #0
		}
		else if (GET_BIT(ADC->ADC_SR, JEOC))
		{

		}
		ADC_CallBack();
 8000194:	4b02      	ldr	r3, [pc, #8]	; (80001a0 <ADC1_2_IRQHandler+0x24>)
 8000196:	681b      	ldr	r3, [r3, #0]
 8000198:	4798      	blx	r3
	}
}
 800019a:	bf00      	nop
 800019c:	bd80      	pop	{r7, pc}
 800019e:	bf00      	nop
 80001a0:	20000030 	.word	0x20000030
 80001a4:	40012400 	.word	0x40012400

080001a8 <DMA1_Channel1_IRQHandler>:
}



void DMA1_Channel1_IRQHandler(void)
{
 80001a8:	b580      	push	{r7, lr}
 80001aa:	af00      	add	r7, sp, #0
	if (DMA_CallBack[Channel1] != NULL)
 80001ac:	4b04      	ldr	r3, [pc, #16]	; (80001c0 <DMA1_Channel1_IRQHandler+0x18>)
 80001ae:	681b      	ldr	r3, [r3, #0]
 80001b0:	2b00      	cmp	r3, #0
 80001b2:	d002      	beq.n	80001ba <DMA1_Channel1_IRQHandler+0x12>
	{
		DMA_CallBack[Channel1]();
 80001b4:	4b02      	ldr	r3, [pc, #8]	; (80001c0 <DMA1_Channel1_IRQHandler+0x18>)
 80001b6:	681b      	ldr	r3, [r3, #0]
 80001b8:	4798      	blx	r3
	}
}
 80001ba:	bf00      	nop
 80001bc:	bd80      	pop	{r7, pc}
 80001be:	bf00      	nop
 80001c0:	20000034 	.word	0x20000034

080001c4 <DMA1_Channel2_IRQHandler>:

void DMA1_Channel2_IRQHandler(void)
{
 80001c4:	b580      	push	{r7, lr}
 80001c6:	af00      	add	r7, sp, #0
	if (DMA_CallBack[Channel2] != NULL)
 80001c8:	4b04      	ldr	r3, [pc, #16]	; (80001dc <DMA1_Channel2_IRQHandler+0x18>)
 80001ca:	685b      	ldr	r3, [r3, #4]
 80001cc:	2b00      	cmp	r3, #0
 80001ce:	d002      	beq.n	80001d6 <DMA1_Channel2_IRQHandler+0x12>
	{
		DMA_CallBack[Channel2]();
 80001d0:	4b02      	ldr	r3, [pc, #8]	; (80001dc <DMA1_Channel2_IRQHandler+0x18>)
 80001d2:	685b      	ldr	r3, [r3, #4]
 80001d4:	4798      	blx	r3
	}
}
 80001d6:	bf00      	nop
 80001d8:	bd80      	pop	{r7, pc}
 80001da:	bf00      	nop
 80001dc:	20000034 	.word	0x20000034

080001e0 <DMA1_Channel3_IRQHandler>:

void DMA1_Channel3_IRQHandler(void)
{
 80001e0:	b580      	push	{r7, lr}
 80001e2:	af00      	add	r7, sp, #0
	if (DMA_CallBack[Channel3] != NULL)
 80001e4:	4b04      	ldr	r3, [pc, #16]	; (80001f8 <DMA1_Channel3_IRQHandler+0x18>)
 80001e6:	689b      	ldr	r3, [r3, #8]
 80001e8:	2b00      	cmp	r3, #0
 80001ea:	d002      	beq.n	80001f2 <DMA1_Channel3_IRQHandler+0x12>
	{
		DMA_CallBack[Channel3]();
 80001ec:	4b02      	ldr	r3, [pc, #8]	; (80001f8 <DMA1_Channel3_IRQHandler+0x18>)
 80001ee:	689b      	ldr	r3, [r3, #8]
 80001f0:	4798      	blx	r3
	}
}
 80001f2:	bf00      	nop
 80001f4:	bd80      	pop	{r7, pc}
 80001f6:	bf00      	nop
 80001f8:	20000034 	.word	0x20000034

080001fc <DMA1_Channel4_IRQHandler>:

void DMA1_Channel4_IRQHandler(void)
{
 80001fc:	b580      	push	{r7, lr}
 80001fe:	af00      	add	r7, sp, #0
	if (DMA_CallBack[Channel4] != NULL)
 8000200:	4b04      	ldr	r3, [pc, #16]	; (8000214 <DMA1_Channel4_IRQHandler+0x18>)
 8000202:	68db      	ldr	r3, [r3, #12]
 8000204:	2b00      	cmp	r3, #0
 8000206:	d002      	beq.n	800020e <DMA1_Channel4_IRQHandler+0x12>
	{
		DMA_CallBack[Channel4]();
 8000208:	4b02      	ldr	r3, [pc, #8]	; (8000214 <DMA1_Channel4_IRQHandler+0x18>)
 800020a:	68db      	ldr	r3, [r3, #12]
 800020c:	4798      	blx	r3
	}
}
 800020e:	bf00      	nop
 8000210:	bd80      	pop	{r7, pc}
 8000212:	bf00      	nop
 8000214:	20000034 	.word	0x20000034

08000218 <DMA1_Channel5_IRQHandler>:

void DMA1_Channel5_IRQHandler(void)
{
 8000218:	b580      	push	{r7, lr}
 800021a:	af00      	add	r7, sp, #0
	if (DMA_CallBack[Channel5] != NULL)
 800021c:	4b04      	ldr	r3, [pc, #16]	; (8000230 <DMA1_Channel5_IRQHandler+0x18>)
 800021e:	691b      	ldr	r3, [r3, #16]
 8000220:	2b00      	cmp	r3, #0
 8000222:	d002      	beq.n	800022a <DMA1_Channel5_IRQHandler+0x12>
	{
		DMA_CallBack[Channel5]();
 8000224:	4b02      	ldr	r3, [pc, #8]	; (8000230 <DMA1_Channel5_IRQHandler+0x18>)
 8000226:	691b      	ldr	r3, [r3, #16]
 8000228:	4798      	blx	r3
	}
}
 800022a:	bf00      	nop
 800022c:	bd80      	pop	{r7, pc}
 800022e:	bf00      	nop
 8000230:	20000034 	.word	0x20000034

08000234 <DMA1_Channel6_IRQHandler>:

void DMA1_Channel6_IRQHandler(void)
{
 8000234:	b580      	push	{r7, lr}
 8000236:	af00      	add	r7, sp, #0
	if (DMA_CallBack[Channel6] != NULL)
 8000238:	4b04      	ldr	r3, [pc, #16]	; (800024c <DMA1_Channel6_IRQHandler+0x18>)
 800023a:	695b      	ldr	r3, [r3, #20]
 800023c:	2b00      	cmp	r3, #0
 800023e:	d002      	beq.n	8000246 <DMA1_Channel6_IRQHandler+0x12>
	{
		DMA_CallBack[Channel6]();
 8000240:	4b02      	ldr	r3, [pc, #8]	; (800024c <DMA1_Channel6_IRQHandler+0x18>)
 8000242:	695b      	ldr	r3, [r3, #20]
 8000244:	4798      	blx	r3
	}
}
 8000246:	bf00      	nop
 8000248:	bd80      	pop	{r7, pc}
 800024a:	bf00      	nop
 800024c:	20000034 	.word	0x20000034

08000250 <DMA1_Channel7_IRQHandler>:

void DMA1_Channel7_IRQHandler(void)
{
 8000250:	b580      	push	{r7, lr}
 8000252:	af00      	add	r7, sp, #0
	if (DMA_CallBack[Channel7] != NULL)
 8000254:	4b04      	ldr	r3, [pc, #16]	; (8000268 <DMA1_Channel7_IRQHandler+0x18>)
 8000256:	699b      	ldr	r3, [r3, #24]
 8000258:	2b00      	cmp	r3, #0
 800025a:	d002      	beq.n	8000262 <DMA1_Channel7_IRQHandler+0x12>
	{
		DMA_CallBack[Channel7]();
 800025c:	4b02      	ldr	r3, [pc, #8]	; (8000268 <DMA1_Channel7_IRQHandler+0x18>)
 800025e:	699b      	ldr	r3, [r3, #24]
 8000260:	4798      	blx	r3
	}
}
 8000262:	bf00      	nop
 8000264:	bd80      	pop	{r7, pc}
 8000266:	bf00      	nop
 8000268:	20000034 	.word	0x20000034

0800026c <EXTI0_IRQHandler>:
}



void EXTI0_IRQHandler(void)
{
 800026c:	b580      	push	{r7, lr}
 800026e:	af00      	add	r7, sp, #0
	if (EXTI_CALLBACK[EXTI0_LINE] != NULL)
 8000270:	4b04      	ldr	r3, [pc, #16]	; (8000284 <EXTI0_IRQHandler+0x18>)
 8000272:	681b      	ldr	r3, [r3, #0]
 8000274:	2b00      	cmp	r3, #0
 8000276:	d002      	beq.n	800027e <EXTI0_IRQHandler+0x12>
	{
		EXTI_CALLBACK[EXTI0_LINE]();
 8000278:	4b02      	ldr	r3, [pc, #8]	; (8000284 <EXTI0_IRQHandler+0x18>)
 800027a:	681b      	ldr	r3, [r3, #0]
 800027c:	4798      	blx	r3
	}

}
 800027e:	bf00      	nop
 8000280:	bd80      	pop	{r7, pc}
 8000282:	bf00      	nop
 8000284:	20000050 	.word	0x20000050

08000288 <EXTI1_IRQHandler>:

void EXTI1_IRQHandler(void)
{
 8000288:	b580      	push	{r7, lr}
 800028a:	af00      	add	r7, sp, #0
	if (EXTI_CALLBACK[EXTI1_LINE] != NULL)
 800028c:	4b04      	ldr	r3, [pc, #16]	; (80002a0 <EXTI1_IRQHandler+0x18>)
 800028e:	685b      	ldr	r3, [r3, #4]
 8000290:	2b00      	cmp	r3, #0
 8000292:	d002      	beq.n	800029a <EXTI1_IRQHandler+0x12>
	{
		EXTI_CALLBACK[EXTI1_LINE]();
 8000294:	4b02      	ldr	r3, [pc, #8]	; (80002a0 <EXTI1_IRQHandler+0x18>)
 8000296:	685b      	ldr	r3, [r3, #4]
 8000298:	4798      	blx	r3
	}

}
 800029a:	bf00      	nop
 800029c:	bd80      	pop	{r7, pc}
 800029e:	bf00      	nop
 80002a0:	20000050 	.word	0x20000050

080002a4 <EXTI2_IRQHandler>:
void EXTI2_IRQHandler(void)
{
 80002a4:	b580      	push	{r7, lr}
 80002a6:	af00      	add	r7, sp, #0
	if (EXTI_CALLBACK[EXTI2_LINE] != NULL)
 80002a8:	4b04      	ldr	r3, [pc, #16]	; (80002bc <EXTI2_IRQHandler+0x18>)
 80002aa:	689b      	ldr	r3, [r3, #8]
 80002ac:	2b00      	cmp	r3, #0
 80002ae:	d002      	beq.n	80002b6 <EXTI2_IRQHandler+0x12>
	{
		EXTI_CALLBACK[EXTI2_LINE]();
 80002b0:	4b02      	ldr	r3, [pc, #8]	; (80002bc <EXTI2_IRQHandler+0x18>)
 80002b2:	689b      	ldr	r3, [r3, #8]
 80002b4:	4798      	blx	r3
	}
}
 80002b6:	bf00      	nop
 80002b8:	bd80      	pop	{r7, pc}
 80002ba:	bf00      	nop
 80002bc:	20000050 	.word	0x20000050

080002c0 <EXTI3_IRQHandler>:
void EXTI3_IRQHandler(void)
{
 80002c0:	b580      	push	{r7, lr}
 80002c2:	af00      	add	r7, sp, #0
	if (EXTI_CALLBACK[EXTI3_LINE] != NULL)
 80002c4:	4b04      	ldr	r3, [pc, #16]	; (80002d8 <EXTI3_IRQHandler+0x18>)
 80002c6:	68db      	ldr	r3, [r3, #12]
 80002c8:	2b00      	cmp	r3, #0
 80002ca:	d002      	beq.n	80002d2 <EXTI3_IRQHandler+0x12>
	{
		EXTI_CALLBACK[EXTI3_LINE]();
 80002cc:	4b02      	ldr	r3, [pc, #8]	; (80002d8 <EXTI3_IRQHandler+0x18>)
 80002ce:	68db      	ldr	r3, [r3, #12]
 80002d0:	4798      	blx	r3
	}
}
 80002d2:	bf00      	nop
 80002d4:	bd80      	pop	{r7, pc}
 80002d6:	bf00      	nop
 80002d8:	20000050 	.word	0x20000050

080002dc <EXTI4_IRQHandler>:
void EXTI4_IRQHandler(void)
{
 80002dc:	b580      	push	{r7, lr}
 80002de:	af00      	add	r7, sp, #0
	if (EXTI_CALLBACK[EXTI4_LINE] != NULL)
 80002e0:	4b04      	ldr	r3, [pc, #16]	; (80002f4 <EXTI4_IRQHandler+0x18>)
 80002e2:	691b      	ldr	r3, [r3, #16]
 80002e4:	2b00      	cmp	r3, #0
 80002e6:	d002      	beq.n	80002ee <EXTI4_IRQHandler+0x12>
	{
		EXTI_CALLBACK[EXTI4_LINE]();
 80002e8:	4b02      	ldr	r3, [pc, #8]	; (80002f4 <EXTI4_IRQHandler+0x18>)
 80002ea:	691b      	ldr	r3, [r3, #16]
 80002ec:	4798      	blx	r3
	}
}
 80002ee:	bf00      	nop
 80002f0:	bd80      	pop	{r7, pc}
 80002f2:	bf00      	nop
 80002f4:	20000050 	.word	0x20000050

080002f8 <EXTI9_5_IRQHandler>:
void EXTI9_5_IRQHandler(void)
{
 80002f8:	b580      	push	{r7, lr}
 80002fa:	af00      	add	r7, sp, #0
	if (EXTI_CALLBACK[EXTI5_LINE] != NULL)
 80002fc:	4b14      	ldr	r3, [pc, #80]	; (8000350 <EXTI9_5_IRQHandler+0x58>)
 80002fe:	695b      	ldr	r3, [r3, #20]
 8000300:	2b00      	cmp	r3, #0
 8000302:	d003      	beq.n	800030c <EXTI9_5_IRQHandler+0x14>
	{
		EXTI_CALLBACK[EXTI5_LINE]();
 8000304:	4b12      	ldr	r3, [pc, #72]	; (8000350 <EXTI9_5_IRQHandler+0x58>)
 8000306:	695b      	ldr	r3, [r3, #20]
 8000308:	4798      	blx	r3
	else if (EXTI_CALLBACK[EXTI9_LINE] != NULL)
	{
		EXTI_CALLBACK[EXTI9_LINE]();

	}
}
 800030a:	e01e      	b.n	800034a <EXTI9_5_IRQHandler+0x52>
	else if (EXTI_CALLBACK[EXTI6_LINE] != NULL)
 800030c:	4b10      	ldr	r3, [pc, #64]	; (8000350 <EXTI9_5_IRQHandler+0x58>)
 800030e:	699b      	ldr	r3, [r3, #24]
 8000310:	2b00      	cmp	r3, #0
 8000312:	d003      	beq.n	800031c <EXTI9_5_IRQHandler+0x24>
		EXTI_CALLBACK[EXTI6_LINE]();
 8000314:	4b0e      	ldr	r3, [pc, #56]	; (8000350 <EXTI9_5_IRQHandler+0x58>)
 8000316:	699b      	ldr	r3, [r3, #24]
 8000318:	4798      	blx	r3
}
 800031a:	e016      	b.n	800034a <EXTI9_5_IRQHandler+0x52>
	else if (EXTI_CALLBACK[EXTI7_LINE] != NULL)
 800031c:	4b0c      	ldr	r3, [pc, #48]	; (8000350 <EXTI9_5_IRQHandler+0x58>)
 800031e:	69db      	ldr	r3, [r3, #28]
 8000320:	2b00      	cmp	r3, #0
 8000322:	d003      	beq.n	800032c <EXTI9_5_IRQHandler+0x34>
		EXTI_CALLBACK[EXTI7_LINE]();
 8000324:	4b0a      	ldr	r3, [pc, #40]	; (8000350 <EXTI9_5_IRQHandler+0x58>)
 8000326:	69db      	ldr	r3, [r3, #28]
 8000328:	4798      	blx	r3
}
 800032a:	e00e      	b.n	800034a <EXTI9_5_IRQHandler+0x52>
	else if (EXTI_CALLBACK[EXTI8_LINE] != NULL)
 800032c:	4b08      	ldr	r3, [pc, #32]	; (8000350 <EXTI9_5_IRQHandler+0x58>)
 800032e:	6a1b      	ldr	r3, [r3, #32]
 8000330:	2b00      	cmp	r3, #0
 8000332:	d003      	beq.n	800033c <EXTI9_5_IRQHandler+0x44>
		EXTI_CALLBACK[EXTI8_LINE]();
 8000334:	4b06      	ldr	r3, [pc, #24]	; (8000350 <EXTI9_5_IRQHandler+0x58>)
 8000336:	6a1b      	ldr	r3, [r3, #32]
 8000338:	4798      	blx	r3
}
 800033a:	e006      	b.n	800034a <EXTI9_5_IRQHandler+0x52>
	else if (EXTI_CALLBACK[EXTI9_LINE] != NULL)
 800033c:	4b04      	ldr	r3, [pc, #16]	; (8000350 <EXTI9_5_IRQHandler+0x58>)
 800033e:	6a5b      	ldr	r3, [r3, #36]	; 0x24
 8000340:	2b00      	cmp	r3, #0
 8000342:	d002      	beq.n	800034a <EXTI9_5_IRQHandler+0x52>
		EXTI_CALLBACK[EXTI9_LINE]();
 8000344:	4b02      	ldr	r3, [pc, #8]	; (8000350 <EXTI9_5_IRQHandler+0x58>)
 8000346:	6a5b      	ldr	r3, [r3, #36]	; 0x24
 8000348:	4798      	blx	r3
}
 800034a:	bf00      	nop
 800034c:	bd80      	pop	{r7, pc}
 800034e:	bf00      	nop
 8000350:	20000050 	.word	0x20000050

08000354 <EXTI15_10_IRQHandler>:

void EXTI15_10_IRQHandler(void)
{
 8000354:	b580      	push	{r7, lr}
 8000356:	af00      	add	r7, sp, #0
	if (EXTI_CALLBACK[EXTI10_LINE] != NULL)
 8000358:	4b18      	ldr	r3, [pc, #96]	; (80003bc <EXTI15_10_IRQHandler+0x68>)
 800035a:	6a9b      	ldr	r3, [r3, #40]	; 0x28
 800035c:	2b00      	cmp	r3, #0
 800035e:	d003      	beq.n	8000368 <EXTI15_10_IRQHandler+0x14>
	{
		EXTI_CALLBACK[EXTI10_LINE]();
 8000360:	4b16      	ldr	r3, [pc, #88]	; (80003bc <EXTI15_10_IRQHandler+0x68>)
 8000362:	6a9b      	ldr	r3, [r3, #40]	; 0x28
 8000364:	4798      	blx	r3
	else if (EXTI_CALLBACK[EXTI15_LINE] != NULL)
	{
		EXTI_CALLBACK[EXTI15_LINE]();

	}
}
 8000366:	e026      	b.n	80003b6 <EXTI15_10_IRQHandler+0x62>
	else if (EXTI_CALLBACK[EXTI11_LINE] != NULL)
 8000368:	4b14      	ldr	r3, [pc, #80]	; (80003bc <EXTI15_10_IRQHandler+0x68>)
 800036a:	6adb      	ldr	r3, [r3, #44]	; 0x2c
 800036c:	2b00      	cmp	r3, #0
 800036e:	d003      	beq.n	8000378 <EXTI15_10_IRQHandler+0x24>
		EXTI_CALLBACK[EXTI11_LINE]();
 8000370:	4b12      	ldr	r3, [pc, #72]	; (80003bc <EXTI15_10_IRQHandler+0x68>)
 8000372:	6adb      	ldr	r3, [r3, #44]	; 0x2c
 8000374:	4798      	blx	r3
}
 8000376:	e01e      	b.n	80003b6 <EXTI15_10_IRQHandler+0x62>
	else if (EXTI_CALLBACK[EXTI12_LINE] != NULL)
 8000378:	4b10      	ldr	r3, [pc, #64]	; (80003bc <EXTI15_10_IRQHandler+0x68>)
 800037a:	6b1b      	ldr	r3, [r3, #48]	; 0x30
 800037c:	2b00      	cmp	r3, #0
 800037e:	d003      	beq.n	8000388 <EXTI15_10_IRQHandler+0x34>
		EXTI_CALLBACK[EXTI12_LINE]();
 8000380:	4b0e      	ldr	r3, [pc, #56]	; (80003bc <EXTI15_10_IRQHandler+0x68>)
 8000382:	6b1b      	ldr	r3, [r3, #48]	; 0x30
 8000384:	4798      	blx	r3
}
 8000386:	e016      	b.n	80003b6 <EXTI15_10_IRQHandler+0x62>
	else if (EXTI_CALLBACK[EXTI13_LINE] != NULL)
 8000388:	4b0c      	ldr	r3, [pc, #48]	; (80003bc <EXTI15_10_IRQHandler+0x68>)
 800038a:	6b5b      	ldr	r3, [r3, #52]	; 0x34
 800038c:	2b00      	cmp	r3, #0
 800038e:	d003      	beq.n	8000398 <EXTI15_10_IRQHandler+0x44>
		EXTI_CALLBACK[EXTI13_LINE]();
 8000390:	4b0a      	ldr	r3, [pc, #40]	; (80003bc <EXTI15_10_IRQHandler+0x68>)
 8000392:	6b5b      	ldr	r3, [r3, #52]	; 0x34
 8000394:	4798      	blx	r3
}
 8000396:	e00e      	b.n	80003b6 <EXTI15_10_IRQHandler+0x62>
	else if (EXTI_CALLBACK[EXTI14_LINE] != NULL)
 8000398:	4b08      	ldr	r3, [pc, #32]	; (80003bc <EXTI15_10_IRQHandler+0x68>)
 800039a:	6b9b      	ldr	r3, [r3, #56]	; 0x38
 800039c:	2b00      	cmp	r3, #0
 800039e:	d003      	beq.n	80003a8 <EXTI15_10_IRQHandler+0x54>
		EXTI_CALLBACK[EXTI14_LINE]();
 80003a0:	4b06      	ldr	r3, [pc, #24]	; (80003bc <EXTI15_10_IRQHandler+0x68>)
 80003a2:	6b9b      	ldr	r3, [r3, #56]	; 0x38
 80003a4:	4798      	blx	r3
}
 80003a6:	e006      	b.n	80003b6 <EXTI15_10_IRQHandler+0x62>
	else if (EXTI_CALLBACK[EXTI15_LINE] != NULL)
 80003a8:	4b04      	ldr	r3, [pc, #16]	; (80003bc <EXTI15_10_IRQHandler+0x68>)
 80003aa:	6bdb      	ldr	r3, [r3, #60]	; 0x3c
 80003ac:	2b00      	cmp	r3, #0
 80003ae:	d002      	beq.n	80003b6 <EXTI15_10_IRQHandler+0x62>
		EXTI_CALLBACK[EXTI15_LINE]();
 80003b0:	4b02      	ldr	r3, [pc, #8]	; (80003bc <EXTI15_10_IRQHandler+0x68>)
 80003b2:	6bdb      	ldr	r3, [r3, #60]	; 0x3c
 80003b4:	4798      	blx	r3
}
 80003b6:	bf00      	nop
 80003b8:	bd80      	pop	{r7, pc}
 80003ba:	bf00      	nop
 80003bc:	20000050 	.word	0x20000050

080003c0 <SPI1_IRQHandler>:
 * @param	void
 * @retval	void
 */

void SPI1_IRQHandler(void)
{
 80003c0:	b580      	push	{r7, lr}
 80003c2:	af00      	add	r7, sp, #0
	if (MSPI_CALLBACK[MSPI1].callback_TxRx!= NULL)
 80003c4:	4b27      	ldr	r3, [pc, #156]	; (8000464 <SPI1_IRQHandler+0xa4>)
 80003c6:	689b      	ldr	r3, [r3, #8]
 80003c8:	2b00      	cmp	r3, #0
 80003ca:	d046      	beq.n	800045a <SPI1_IRQHandler+0x9a>
	{
		/* check if the Tx Buffer empty is fired, so copy the data and transmit it  */
		if ((GET_BIT(MSPI_CHANNELS[MSPI1]->SPI_SR, TXE))&&(GET_BIT(MSPI_CHANNELS[MSPI1]->SPI_CR2, MSPI_TXE_INT)))
 80003cc:	4b26      	ldr	r3, [pc, #152]	; (8000468 <SPI1_IRQHandler+0xa8>)
 80003ce:	681b      	ldr	r3, [r3, #0]
 80003d0:	689b      	ldr	r3, [r3, #8]
 80003d2:	085b      	lsrs	r3, r3, #1
 80003d4:	f003 0301 	and.w	r3, r3, #1
 80003d8:	2b00      	cmp	r3, #0
 80003da:	d00d      	beq.n	80003f8 <SPI1_IRQHandler+0x38>
 80003dc:	4b22      	ldr	r3, [pc, #136]	; (8000468 <SPI1_IRQHandler+0xa8>)
 80003de:	681b      	ldr	r3, [r3, #0]
 80003e0:	685b      	ldr	r3, [r3, #4]
 80003e2:	09db      	lsrs	r3, r3, #7
 80003e4:	f003 0301 	and.w	r3, r3, #1
 80003e8:	2b00      	cmp	r3, #0
 80003ea:	d005      	beq.n	80003f8 <SPI1_IRQHandler+0x38>
		{
			MSPI_CHANNELS[MSPI1]->SPI_DR = MSPI_CALLBACK[MSPI1].copy_u16Txdata;
 80003ec:	4b1d      	ldr	r3, [pc, #116]	; (8000464 <SPI1_IRQHandler+0xa4>)
 80003ee:	881a      	ldrh	r2, [r3, #0]
 80003f0:	4b1d      	ldr	r3, [pc, #116]	; (8000468 <SPI1_IRQHandler+0xa8>)
 80003f2:	681b      	ldr	r3, [r3, #0]
 80003f4:	60da      	str	r2, [r3, #12]
 80003f6:	e030      	b.n	800045a <SPI1_IRQHandler+0x9a>
		}

		/* check if the Rx buffer Not empty is fired and ready to receive,so return the data  */
		else if ((GET_BIT(MSPI_CHANNELS[MSPI1]->SPI_SR, RXN))&&(GET_BIT(MSPI_CHANNELS[MSPI1]->SPI_CR2, MSPI_RXNE_INT)))
 80003f8:	4b1b      	ldr	r3, [pc, #108]	; (8000468 <SPI1_IRQHandler+0xa8>)
 80003fa:	681b      	ldr	r3, [r3, #0]
 80003fc:	689b      	ldr	r3, [r3, #8]
 80003fe:	f003 0301 	and.w	r3, r3, #1
 8000402:	2b00      	cmp	r3, #0
 8000404:	d00e      	beq.n	8000424 <SPI1_IRQHandler+0x64>
 8000406:	4b18      	ldr	r3, [pc, #96]	; (8000468 <SPI1_IRQHandler+0xa8>)
 8000408:	681b      	ldr	r3, [r3, #0]
 800040a:	685b      	ldr	r3, [r3, #4]
 800040c:	099b      	lsrs	r3, r3, #6
 800040e:	f003 0301 	and.w	r3, r3, #1
 8000412:	2b00      	cmp	r3, #0
 8000414:	d006      	beq.n	8000424 <SPI1_IRQHandler+0x64>
		{
			MSPI_CALLBACK[MSPI1].ptr_u16Rxdata = (u16*)MSPI_CHANNELS[MSPI1]->SPI_DR ;
 8000416:	4b14      	ldr	r3, [pc, #80]	; (8000468 <SPI1_IRQHandler+0xa8>)
 8000418:	681b      	ldr	r3, [r3, #0]
 800041a:	68db      	ldr	r3, [r3, #12]
 800041c:	461a      	mov	r2, r3
 800041e:	4b11      	ldr	r3, [pc, #68]	; (8000464 <SPI1_IRQHandler+0xa4>)
 8000420:	605a      	str	r2, [r3, #4]
 8000422:	e01a      	b.n	800045a <SPI1_IRQHandler+0x9a>
		}

		/* check if the Mode Fault interrupt is fired, and notify it  */
		else if ((GET_BIT(MSPI_CHANNELS[MSPI1]->SPI_SR, MODF))&&(GET_BIT(MSPI_CHANNELS[MSPI1]->SPI_CR2, MSPI_ERR_INT)))
 8000424:	4b10      	ldr	r3, [pc, #64]	; (8000468 <SPI1_IRQHandler+0xa8>)
 8000426:	681b      	ldr	r3, [r3, #0]
 8000428:	689b      	ldr	r3, [r3, #8]
 800042a:	095b      	lsrs	r3, r3, #5
 800042c:	f003 0301 	and.w	r3, r3, #1
 8000430:	2b00      	cmp	r3, #0
 8000432:	d007      	beq.n	8000444 <SPI1_IRQHandler+0x84>
 8000434:	4b0c      	ldr	r3, [pc, #48]	; (8000468 <SPI1_IRQHandler+0xa8>)
 8000436:	681b      	ldr	r3, [r3, #0]
 8000438:	685b      	ldr	r3, [r3, #4]
 800043a:	095b      	lsrs	r3, r3, #5
 800043c:	f003 0301 	and.w	r3, r3, #1
 8000440:	2b00      	cmp	r3, #0
 8000442:	d10a      	bne.n	800045a <SPI1_IRQHandler+0x9a>
		{

		}

		/* check if the Mode Fault interrupt is fired, and notify it  */
		else if ((GET_BIT(MSPI_CHANNELS[MSPI1]->SPI_SR, OVR))&&(GET_BIT(MSPI_CHANNELS[MSPI1]->SPI_CR2, MSPI_ERR_INT)))
 8000444:	4b08      	ldr	r3, [pc, #32]	; (8000468 <SPI1_IRQHandler+0xa8>)
 8000446:	681b      	ldr	r3, [r3, #0]
 8000448:	689b      	ldr	r3, [r3, #8]
 800044a:	099b      	lsrs	r3, r3, #6
 800044c:	f003 0301 	and.w	r3, r3, #1
 8000450:	2b00      	cmp	r3, #0
 8000452:	d002      	beq.n	800045a <SPI1_IRQHandler+0x9a>
 8000454:	4b04      	ldr	r3, [pc, #16]	; (8000468 <SPI1_IRQHandler+0xa8>)
 8000456:	681b      	ldr	r3, [r3, #0]
 8000458:	685b      	ldr	r3, [r3, #4]
		{

		}
	}
	/* perform the Callback fun from the App */
	MSPI_CALLBACK[MSPI1].callback_TxRx();
 800045a:	4b02      	ldr	r3, [pc, #8]	; (8000464 <SPI1_IRQHandler+0xa4>)
 800045c:	689b      	ldr	r3, [r3, #8]
 800045e:	4798      	blx	r3
}
 8000460:	bf00      	nop
 8000462:	bd80      	pop	{r7, pc}
 8000464:	20000090 	.word	0x20000090
 8000468:	20000000 	.word	0x20000000

0800046c <SPI2_IRQHandler>:

void SPI2_IRQHandler(void)
{
 800046c:	b580      	push	{r7, lr}
 800046e:	af00      	add	r7, sp, #0
	if (MSPI_CALLBACK[MSPI2].callback_TxRx!= NULL)
 8000470:	4b27      	ldr	r3, [pc, #156]	; (8000510 <SPI2_IRQHandler+0xa4>)
 8000472:	695b      	ldr	r3, [r3, #20]
 8000474:	2b00      	cmp	r3, #0
 8000476:	d046      	beq.n	8000506 <SPI2_IRQHandler+0x9a>
	{
		/* check if the Tx Buffer empty is fired, so copy the data and transmit it  */
		if ((GET_BIT(MSPI_CHANNELS[MSPI2]->SPI_SR, TXE))&&(GET_BIT(MSPI_CHANNELS[MSPI2]->SPI_CR2, MSPI_TXE_INT)))
 8000478:	4b26      	ldr	r3, [pc, #152]	; (8000514 <SPI2_IRQHandler+0xa8>)
 800047a:	685b      	ldr	r3, [r3, #4]
 800047c:	689b      	ldr	r3, [r3, #8]
 800047e:	085b      	lsrs	r3, r3, #1
 8000480:	f003 0301 	and.w	r3, r3, #1
 8000484:	2b00      	cmp	r3, #0
 8000486:	d00d      	beq.n	80004a4 <SPI2_IRQHandler+0x38>
 8000488:	4b22      	ldr	r3, [pc, #136]	; (8000514 <SPI2_IRQHandler+0xa8>)
 800048a:	685b      	ldr	r3, [r3, #4]
 800048c:	685b      	ldr	r3, [r3, #4]
 800048e:	09db      	lsrs	r3, r3, #7
 8000490:	f003 0301 	and.w	r3, r3, #1
 8000494:	2b00      	cmp	r3, #0
 8000496:	d005      	beq.n	80004a4 <SPI2_IRQHandler+0x38>
		{
			MSPI_CHANNELS[MSPI2]->SPI_DR = MSPI_CALLBACK[MSPI2].copy_u16Txdata;
 8000498:	4b1d      	ldr	r3, [pc, #116]	; (8000510 <SPI2_IRQHandler+0xa4>)
 800049a:	899a      	ldrh	r2, [r3, #12]
 800049c:	4b1d      	ldr	r3, [pc, #116]	; (8000514 <SPI2_IRQHandler+0xa8>)
 800049e:	685b      	ldr	r3, [r3, #4]
 80004a0:	60da      	str	r2, [r3, #12]
 80004a2:	e030      	b.n	8000506 <SPI2_IRQHandler+0x9a>
		}

		/* check if the Rx buffer Not empty is fired and ready to receive,so return the data  */
		else if ((GET_BIT(MSPI_CHANNELS[MSPI2]->SPI_SR, RXN))&&(GET_BIT(MSPI_CHANNELS[MSPI2]->SPI_CR2, MSPI_RXNE_INT)))
 80004a4:	4b1b      	ldr	r3, [pc, #108]	; (8000514 <SPI2_IRQHandler+0xa8>)
 80004a6:	685b      	ldr	r3, [r3, #4]
 80004a8:	689b      	ldr	r3, [r3, #8]
 80004aa:	f003 0301 	and.w	r3, r3, #1
 80004ae:	2b00      	cmp	r3, #0
 80004b0:	d00e      	beq.n	80004d0 <SPI2_IRQHandler+0x64>
 80004b2:	4b18      	ldr	r3, [pc, #96]	; (8000514 <SPI2_IRQHandler+0xa8>)
 80004b4:	685b      	ldr	r3, [r3, #4]
 80004b6:	685b      	ldr	r3, [r3, #4]
 80004b8:	099b      	lsrs	r3, r3, #6
 80004ba:	f003 0301 	and.w	r3, r3, #1
 80004be:	2b00      	cmp	r3, #0
 80004c0:	d006      	beq.n	80004d0 <SPI2_IRQHandler+0x64>
		{
			MSPI_CALLBACK[MSPI2].ptr_u16Rxdata = (u16*)MSPI_CHANNELS[MSPI2]->SPI_DR ;
 80004c2:	4b14      	ldr	r3, [pc, #80]	; (8000514 <SPI2_IRQHandler+0xa8>)
 80004c4:	685b      	ldr	r3, [r3, #4]
 80004c6:	68db      	ldr	r3, [r3, #12]
 80004c8:	461a      	mov	r2, r3
 80004ca:	4b11      	ldr	r3, [pc, #68]	; (8000510 <SPI2_IRQHandler+0xa4>)
 80004cc:	611a      	str	r2, [r3, #16]
 80004ce:	e01a      	b.n	8000506 <SPI2_IRQHandler+0x9a>
		}

		/* check if the Mode Fault interrupt is fired, and notify it  */
		else if ((GET_BIT(MSPI_CHANNELS[MSPI2]->SPI_SR, MODF))&&(GET_BIT(MSPI_CHANNELS[MSPI2]->SPI_CR2, MSPI_ERR_INT)))
 80004d0:	4b10      	ldr	r3, [pc, #64]	; (8000514 <SPI2_IRQHandler+0xa8>)
 80004d2:	685b      	ldr	r3, [r3, #4]
 80004d4:	689b      	ldr	r3, [r3, #8]
 80004d6:	095b      	lsrs	r3, r3, #5
 80004d8:	f003 0301 	and.w	r3, r3, #1
 80004dc:	2b00      	cmp	r3, #0
 80004de:	d007      	beq.n	80004f0 <SPI2_IRQHandler+0x84>
 80004e0:	4b0c      	ldr	r3, [pc, #48]	; (8000514 <SPI2_IRQHandler+0xa8>)
 80004e2:	685b      	ldr	r3, [r3, #4]
 80004e4:	685b      	ldr	r3, [r3, #4]
 80004e6:	095b      	lsrs	r3, r3, #5
 80004e8:	f003 0301 	and.w	r3, r3, #1
 80004ec:	2b00      	cmp	r3, #0
 80004ee:	d10a      	bne.n	8000506 <SPI2_IRQHandler+0x9a>
		{

		}

		/* check if the Mode Fault interrupt is fired, and notify it  */
		else if ((GET_BIT(MSPI_CHANNELS[MSPI2]->SPI_SR, OVR))&&(GET_BIT(MSPI_CHANNELS[MSPI2]->SPI_CR2, MSPI_ERR_INT)))
 80004f0:	4b08      	ldr	r3, [pc, #32]	; (8000514 <SPI2_IRQHandler+0xa8>)
 80004f2:	685b      	ldr	r3, [r3, #4]
 80004f4:	689b      	ldr	r3, [r3, #8]
 80004f6:	099b      	lsrs	r3, r3, #6
 80004f8:	f003 0301 	and.w	r3, r3, #1
 80004fc:	2b00      	cmp	r3, #0
 80004fe:	d002      	beq.n	8000506 <SPI2_IRQHandler+0x9a>
 8000500:	4b04      	ldr	r3, [pc, #16]	; (8000514 <SPI2_IRQHandler+0xa8>)
 8000502:	685b      	ldr	r3, [r3, #4]
 8000504:	685b      	ldr	r3, [r3, #4]
		{

		}
	}
	/* perform the Callback fun from the App */
	MSPI_CALLBACK[MSPI2].callback_TxRx();
 8000506:	4b02      	ldr	r3, [pc, #8]	; (8000510 <SPI2_IRQHandler+0xa4>)
 8000508:	695b      	ldr	r3, [r3, #20]
 800050a:	4798      	blx	r3
}
 800050c:	bf00      	nop
 800050e:	bd80      	pop	{r7, pc}
 8000510:	20000090 	.word	0x20000090
 8000514:	20000000 	.word	0x20000000

08000518 <SysTick_Handler>:
}



void SysTick_Handler(void)
{
 8000518:	b580      	push	{r7, lr}
 800051a:	af00      	add	r7, sp, #0
	local_temp = 0;
 800051c:	4b13      	ldr	r3, [pc, #76]	; (800056c <SysTick_Handler+0x54>)
 800051e:	2200      	movs	r2, #0
 8000520:	701a      	strb	r2, [r3, #0]
	if (flag == 1)
 8000522:	4b13      	ldr	r3, [pc, #76]	; (8000570 <SysTick_Handler+0x58>)
 8000524:	781b      	ldrb	r3, [r3, #0]
 8000526:	2b01      	cmp	r3, #1
 8000528:	d10e      	bne.n	8000548 <SysTick_Handler+0x30>
	{
		CLR_BIT(STK->STK_CTRL, TICKINT);
 800052a:	4b12      	ldr	r3, [pc, #72]	; (8000574 <SysTick_Handler+0x5c>)
 800052c:	681b      	ldr	r3, [r3, #0]
 800052e:	4a11      	ldr	r2, [pc, #68]	; (8000574 <SysTick_Handler+0x5c>)
 8000530:	f023 0302 	bic.w	r3, r3, #2
 8000534:	6013      	str	r3, [r2, #0]
		CLR_BIT(STK->STK_CTRL, ENABLE);
 8000536:	4b0f      	ldr	r3, [pc, #60]	; (8000574 <SysTick_Handler+0x5c>)
 8000538:	681b      	ldr	r3, [r3, #0]
 800053a:	4a0e      	ldr	r2, [pc, #56]	; (8000574 <SysTick_Handler+0x5c>)
 800053c:	f023 0301 	bic.w	r3, r3, #1
 8000540:	6013      	str	r3, [r2, #0]
		STK->STK_VAL = 0;
 8000542:	4b0c      	ldr	r3, [pc, #48]	; (8000574 <SysTick_Handler+0x5c>)
 8000544:	2200      	movs	r2, #0
 8000546:	609a      	str	r2, [r3, #8]
	}

	if (STK_Callback != NULL)
 8000548:	4b0b      	ldr	r3, [pc, #44]	; (8000578 <SysTick_Handler+0x60>)
 800054a:	681b      	ldr	r3, [r3, #0]
 800054c:	2b00      	cmp	r3, #0
 800054e:	d002      	beq.n	8000556 <SysTick_Handler+0x3e>
	{
		STK_Callback();
 8000550:	4b09      	ldr	r3, [pc, #36]	; (8000578 <SysTick_Handler+0x60>)
 8000552:	681b      	ldr	r3, [r3, #0]
 8000554:	4798      	blx	r3
	}

	local_temp = GET_BIT(STK->STK_CTRL,COUNTFLAG);
 8000556:	4b07      	ldr	r3, [pc, #28]	; (8000574 <SysTick_Handler+0x5c>)
 8000558:	681b      	ldr	r3, [r3, #0]
 800055a:	0c1b      	lsrs	r3, r3, #16
 800055c:	b2db      	uxtb	r3, r3
 800055e:	f003 0301 	and.w	r3, r3, #1
 8000562:	b2da      	uxtb	r2, r3
 8000564:	4b01      	ldr	r3, [pc, #4]	; (800056c <SysTick_Handler+0x54>)
 8000566:	701a      	strb	r2, [r3, #0]
}
 8000568:	bf00      	nop
 800056a:	bd80      	pop	{r7, pc}
 800056c:	200000d4 	.word	0x200000d4
 8000570:	200000ac 	.word	0x200000ac
 8000574:	e000e010 	.word	0xe000e010
 8000578:	200000a8 	.word	0x200000a8

0800057c <USART1_IRQHandler>:
 *@param 	void
 *@retval 	void
 *
 */
void USART1_IRQHandler (void)
{
 800057c:	b580      	push	{r7, lr}
 800057e:	af00      	add	r7, sp, #0
	if (Callback_CH[MUSART1].TxRx_callback != NULL)
 8000580:	4b49      	ldr	r3, [pc, #292]	; (80006a8 <USART1_IRQHandler+0x12c>)
 8000582:	689b      	ldr	r3, [r3, #8]
 8000584:	2b00      	cmp	r3, #0
 8000586:	f000 808d 	beq.w	80006a4 <USART1_IRQHandler+0x128>
	{
		/* check if the IDLE Interrupt is fired */
		if ((GET_BIT(USART_CH[MUSART1]->USART_SR,IDLE))&&(GET_BIT(USART_CH[MUSART1]->USART_CR1,IDLE_INT)))
 800058a:	4b48      	ldr	r3, [pc, #288]	; (80006ac <USART1_IRQHandler+0x130>)
 800058c:	681b      	ldr	r3, [r3, #0]
 800058e:	681b      	ldr	r3, [r3, #0]
 8000590:	091b      	lsrs	r3, r3, #4
 8000592:	f003 0301 	and.w	r3, r3, #1
 8000596:	2b00      	cmp	r3, #0
 8000598:	d002      	beq.n	80005a0 <USART1_IRQHandler+0x24>
 800059a:	4b44      	ldr	r3, [pc, #272]	; (80006ac <USART1_IRQHandler+0x130>)
 800059c:	681b      	ldr	r3, [r3, #0]
 800059e:	68db      	ldr	r3, [r3, #12]
		{

		}

		/* check if the TXE is fired */
		if ((GET_BIT(USART_CH[MUSART1]->USART_SR,TXE))&&(GET_BIT(USART_CH[MUSART1]->USART_CR1,TXEmpty_INT)))
 80005a0:	4b42      	ldr	r3, [pc, #264]	; (80006ac <USART1_IRQHandler+0x130>)
 80005a2:	681b      	ldr	r3, [r3, #0]
 80005a4:	681b      	ldr	r3, [r3, #0]
 80005a6:	09db      	lsrs	r3, r3, #7
 80005a8:	f003 0301 	and.w	r3, r3, #1
 80005ac:	2b00      	cmp	r3, #0
 80005ae:	d00d      	beq.n	80005cc <USART1_IRQHandler+0x50>
 80005b0:	4b3e      	ldr	r3, [pc, #248]	; (80006ac <USART1_IRQHandler+0x130>)
 80005b2:	681b      	ldr	r3, [r3, #0]
 80005b4:	68db      	ldr	r3, [r3, #12]
 80005b6:	09db      	lsrs	r3, r3, #7
 80005b8:	f003 0301 	and.w	r3, r3, #1
 80005bc:	2b00      	cmp	r3, #0
 80005be:	d005      	beq.n	80005cc <USART1_IRQHandler+0x50>
		{
			/* transmit the data */
			USART_CH[MUSART1]->USART_DR = Callback_CH[MUSART1].copy_u8Txdata;
 80005c0:	4b39      	ldr	r3, [pc, #228]	; (80006a8 <USART1_IRQHandler+0x12c>)
 80005c2:	791a      	ldrb	r2, [r3, #4]
 80005c4:	4b39      	ldr	r3, [pc, #228]	; (80006ac <USART1_IRQHandler+0x130>)
 80005c6:	681b      	ldr	r3, [r3, #0]
 80005c8:	605a      	str	r2, [r3, #4]
 80005ca:	e068      	b.n	800069e <USART1_IRQHandler+0x122>
		}

		/* check if the TC is fired */
		else if ((GET_BIT(USART_CH[MUSART1]->USART_SR,TC))&&(GET_BIT(USART_CH[MUSART1]->USART_CR1,TXCompelete_INT)))
 80005cc:	4b37      	ldr	r3, [pc, #220]	; (80006ac <USART1_IRQHandler+0x130>)
 80005ce:	681b      	ldr	r3, [r3, #0]
 80005d0:	681b      	ldr	r3, [r3, #0]
 80005d2:	099b      	lsrs	r3, r3, #6
 80005d4:	f003 0301 	and.w	r3, r3, #1
 80005d8:	2b00      	cmp	r3, #0
 80005da:	d010      	beq.n	80005fe <USART1_IRQHandler+0x82>
 80005dc:	4b33      	ldr	r3, [pc, #204]	; (80006ac <USART1_IRQHandler+0x130>)
 80005de:	681b      	ldr	r3, [r3, #0]
 80005e0:	68db      	ldr	r3, [r3, #12]
 80005e2:	099b      	lsrs	r3, r3, #6
 80005e4:	f003 0301 	and.w	r3, r3, #1
 80005e8:	2b00      	cmp	r3, #0
 80005ea:	d008      	beq.n	80005fe <USART1_IRQHandler+0x82>
		{
			/* Clear the TC Flag by software */
			CLR_BIT(USART_CH[MUSART1]->USART_SR, TC);
 80005ec:	4b2f      	ldr	r3, [pc, #188]	; (80006ac <USART1_IRQHandler+0x130>)
 80005ee:	681b      	ldr	r3, [r3, #0]
 80005f0:	681a      	ldr	r2, [r3, #0]
 80005f2:	4b2e      	ldr	r3, [pc, #184]	; (80006ac <USART1_IRQHandler+0x130>)
 80005f4:	681b      	ldr	r3, [r3, #0]
 80005f6:	f022 0240 	bic.w	r2, r2, #64	; 0x40
 80005fa:	601a      	str	r2, [r3, #0]
 80005fc:	e04f      	b.n	800069e <USART1_IRQHandler+0x122>
		}

		/* check if the RXNE is fired */
		else if ((GET_BIT(USART_CH[MUSART1]->USART_SR,RXNE))&&(GET_BIT(USART_CH[MUSART1]->USART_CR1,RXNEmpty_INT)))
 80005fe:	4b2b      	ldr	r3, [pc, #172]	; (80006ac <USART1_IRQHandler+0x130>)
 8000600:	681b      	ldr	r3, [r3, #0]
 8000602:	681b      	ldr	r3, [r3, #0]
 8000604:	095b      	lsrs	r3, r3, #5
 8000606:	f003 0301 	and.w	r3, r3, #1
 800060a:	2b00      	cmp	r3, #0
 800060c:	d00e      	beq.n	800062c <USART1_IRQHandler+0xb0>
 800060e:	4b27      	ldr	r3, [pc, #156]	; (80006ac <USART1_IRQHandler+0x130>)
 8000610:	681b      	ldr	r3, [r3, #0]
 8000612:	68db      	ldr	r3, [r3, #12]
 8000614:	095b      	lsrs	r3, r3, #5
 8000616:	f003 0301 	and.w	r3, r3, #1
 800061a:	2b00      	cmp	r3, #0
 800061c:	d006      	beq.n	800062c <USART1_IRQHandler+0xb0>
		{
			/* receive the data */
			Callback_CH[MUSART1].copy_u8Rxdata = (u8*)USART_CH[MUSART1]->USART_DR ;
 800061e:	4b23      	ldr	r3, [pc, #140]	; (80006ac <USART1_IRQHandler+0x130>)
 8000620:	681b      	ldr	r3, [r3, #0]
 8000622:	685b      	ldr	r3, [r3, #4]
 8000624:	461a      	mov	r2, r3
 8000626:	4b20      	ldr	r3, [pc, #128]	; (80006a8 <USART1_IRQHandler+0x12c>)
 8000628:	601a      	str	r2, [r3, #0]
 800062a:	e038      	b.n	800069e <USART1_IRQHandler+0x122>
		}

		/* check if the parity error Interrupt is fired */
		else if ((GET_BIT(USART_CH[MUSART1]->USART_SR,PE))&&(GET_BIT(USART_CH[MUSART1]->USART_CR1,ParityEror_INT)))
 800062c:	4b1f      	ldr	r3, [pc, #124]	; (80006ac <USART1_IRQHandler+0x130>)
 800062e:	681b      	ldr	r3, [r3, #0]
 8000630:	681b      	ldr	r3, [r3, #0]
 8000632:	f003 0301 	and.w	r3, r3, #1
 8000636:	2b00      	cmp	r3, #0
 8000638:	d007      	beq.n	800064a <USART1_IRQHandler+0xce>
 800063a:	4b1c      	ldr	r3, [pc, #112]	; (80006ac <USART1_IRQHandler+0x130>)
 800063c:	681b      	ldr	r3, [r3, #0]
 800063e:	68db      	ldr	r3, [r3, #12]
 8000640:	0a1b      	lsrs	r3, r3, #8
 8000642:	f003 0301 	and.w	r3, r3, #1
 8000646:	2b00      	cmp	r3, #0
 8000648:	d129      	bne.n	800069e <USART1_IRQHandler+0x122>
		{

		}

		/* check if the frame error Interrupt is fired */
		else if ((GET_BIT(USART_CH[MUSART1]->USART_SR,FE))&&(GET_BIT(USART_CH[MUSART1]->USART_CR3,Error_INT)))
 800064a:	4b18      	ldr	r3, [pc, #96]	; (80006ac <USART1_IRQHandler+0x130>)
 800064c:	681b      	ldr	r3, [r3, #0]
 800064e:	681b      	ldr	r3, [r3, #0]
 8000650:	085b      	lsrs	r3, r3, #1
 8000652:	f003 0301 	and.w	r3, r3, #1
 8000656:	2b00      	cmp	r3, #0
 8000658:	d006      	beq.n	8000668 <USART1_IRQHandler+0xec>
 800065a:	4b14      	ldr	r3, [pc, #80]	; (80006ac <USART1_IRQHandler+0x130>)
 800065c:	681b      	ldr	r3, [r3, #0]
 800065e:	695b      	ldr	r3, [r3, #20]
 8000660:	f003 0301 	and.w	r3, r3, #1
 8000664:	2b00      	cmp	r3, #0
 8000666:	d11a      	bne.n	800069e <USART1_IRQHandler+0x122>
		{

		}

		/* check if the overrun error Interrupt is fired */
		else if ((GET_BIT(USART_CH[MUSART1]->USART_SR,ORE))&&(GET_BIT(USART_CH[MUSART1]->USART_CR1,RXNEmpty_INT)))
 8000668:	4b10      	ldr	r3, [pc, #64]	; (80006ac <USART1_IRQHandler+0x130>)
 800066a:	681b      	ldr	r3, [r3, #0]
 800066c:	681b      	ldr	r3, [r3, #0]
 800066e:	08db      	lsrs	r3, r3, #3
 8000670:	f003 0301 	and.w	r3, r3, #1
 8000674:	2b00      	cmp	r3, #0
 8000676:	d007      	beq.n	8000688 <USART1_IRQHandler+0x10c>
 8000678:	4b0c      	ldr	r3, [pc, #48]	; (80006ac <USART1_IRQHandler+0x130>)
 800067a:	681b      	ldr	r3, [r3, #0]
 800067c:	68db      	ldr	r3, [r3, #12]
 800067e:	095b      	lsrs	r3, r3, #5
 8000680:	f003 0301 	and.w	r3, r3, #1
 8000684:	2b00      	cmp	r3, #0
 8000686:	d10a      	bne.n	800069e <USART1_IRQHandler+0x122>
		{

		}

		/* check if the noise error Interrupt is fired */
		else if ((GET_BIT(USART_CH[MUSART1]->USART_SR,NE))&&(GET_BIT(USART_CH[MUSART1]->USART_CR3,Error_INT)))
 8000688:	4b08      	ldr	r3, [pc, #32]	; (80006ac <USART1_IRQHandler+0x130>)
 800068a:	681b      	ldr	r3, [r3, #0]
 800068c:	681b      	ldr	r3, [r3, #0]
 800068e:	089b      	lsrs	r3, r3, #2
 8000690:	f003 0301 	and.w	r3, r3, #1
 8000694:	2b00      	cmp	r3, #0
 8000696:	d002      	beq.n	800069e <USART1_IRQHandler+0x122>
 8000698:	4b04      	ldr	r3, [pc, #16]	; (80006ac <USART1_IRQHandler+0x130>)
 800069a:	681b      	ldr	r3, [r3, #0]
 800069c:	695b      	ldr	r3, [r3, #20]
		{

		}

		/* perform Action Callback */
		Callback_CH[MUSART1].TxRx_callback();
 800069e:	4b02      	ldr	r3, [pc, #8]	; (80006a8 <USART1_IRQHandler+0x12c>)
 80006a0:	689b      	ldr	r3, [r3, #8]
 80006a2:	4798      	blx	r3
	}
}
 80006a4:	bf00      	nop
 80006a6:	bd80      	pop	{r7, pc}
 80006a8:	200000b0 	.word	0x200000b0
 80006ac:	20000008 	.word	0x20000008

080006b0 <USART2_IRQHandler>:

void USART2_IRQHandler (void)
{
 80006b0:	b580      	push	{r7, lr}
 80006b2:	af00      	add	r7, sp, #0
	if (Callback_CH[MUSART2].TxRx_callback != NULL)
 80006b4:	4b49      	ldr	r3, [pc, #292]	; (80007dc <USART2_IRQHandler+0x12c>)
 80006b6:	695b      	ldr	r3, [r3, #20]
 80006b8:	2b00      	cmp	r3, #0
 80006ba:	f000 808d 	beq.w	80007d8 <USART2_IRQHandler+0x128>
	{
		/* check if the IDLE Interrupt is fired */
		if ((GET_BIT(USART_CH[MUSART2]->USART_SR,IDLE))&&(GET_BIT(USART_CH[MUSART2]->USART_CR1,IDLE_INT)))
 80006be:	4b48      	ldr	r3, [pc, #288]	; (80007e0 <USART2_IRQHandler+0x130>)
 80006c0:	685b      	ldr	r3, [r3, #4]
 80006c2:	681b      	ldr	r3, [r3, #0]
 80006c4:	091b      	lsrs	r3, r3, #4
 80006c6:	f003 0301 	and.w	r3, r3, #1
 80006ca:	2b00      	cmp	r3, #0
 80006cc:	d002      	beq.n	80006d4 <USART2_IRQHandler+0x24>
 80006ce:	4b44      	ldr	r3, [pc, #272]	; (80007e0 <USART2_IRQHandler+0x130>)
 80006d0:	685b      	ldr	r3, [r3, #4]
 80006d2:	68db      	ldr	r3, [r3, #12]
		{

		}

		/* check if the TXE is fired */
		if ((GET_BIT(USART_CH[MUSART2]->USART_SR,TXE))&&(GET_BIT(USART_CH[MUSART2]->USART_CR1,TXEmpty_INT)))
 80006d4:	4b42      	ldr	r3, [pc, #264]	; (80007e0 <USART2_IRQHandler+0x130>)
 80006d6:	685b      	ldr	r3, [r3, #4]
 80006d8:	681b      	ldr	r3, [r3, #0]
 80006da:	09db      	lsrs	r3, r3, #7
 80006dc:	f003 0301 	and.w	r3, r3, #1
 80006e0:	2b00      	cmp	r3, #0
 80006e2:	d00d      	beq.n	8000700 <USART2_IRQHandler+0x50>
 80006e4:	4b3e      	ldr	r3, [pc, #248]	; (80007e0 <USART2_IRQHandler+0x130>)
 80006e6:	685b      	ldr	r3, [r3, #4]
 80006e8:	68db      	ldr	r3, [r3, #12]
 80006ea:	09db      	lsrs	r3, r3, #7
 80006ec:	f003 0301 	and.w	r3, r3, #1
 80006f0:	2b00      	cmp	r3, #0
 80006f2:	d005      	beq.n	8000700 <USART2_IRQHandler+0x50>
		{
			/* transmit the data */
			USART_CH[MUSART2]->USART_DR = Callback_CH[MUSART2].copy_u8Txdata;
 80006f4:	4b39      	ldr	r3, [pc, #228]	; (80007dc <USART2_IRQHandler+0x12c>)
 80006f6:	7c1a      	ldrb	r2, [r3, #16]
 80006f8:	4b39      	ldr	r3, [pc, #228]	; (80007e0 <USART2_IRQHandler+0x130>)
 80006fa:	685b      	ldr	r3, [r3, #4]
 80006fc:	605a      	str	r2, [r3, #4]
 80006fe:	e068      	b.n	80007d2 <USART2_IRQHandler+0x122>
		}

		else if ((GET_BIT(USART_CH[MUSART2]->USART_SR,TC))&&(GET_BIT(USART_CH[MUSART2]->USART_CR1,TXCompelete_INT)))
 8000700:	4b37      	ldr	r3, [pc, #220]	; (80007e0 <USART2_IRQHandler+0x130>)
 8000702:	685b      	ldr	r3, [r3, #4]
 8000704:	681b      	ldr	r3, [r3, #0]
 8000706:	099b      	lsrs	r3, r3, #6
 8000708:	f003 0301 	and.w	r3, r3, #1
 800070c:	2b00      	cmp	r3, #0
 800070e:	d010      	beq.n	8000732 <USART2_IRQHandler+0x82>
 8000710:	4b33      	ldr	r3, [pc, #204]	; (80007e0 <USART2_IRQHandler+0x130>)
 8000712:	685b      	ldr	r3, [r3, #4]
 8000714:	68db      	ldr	r3, [r3, #12]
 8000716:	099b      	lsrs	r3, r3, #6
 8000718:	f003 0301 	and.w	r3, r3, #1
 800071c:	2b00      	cmp	r3, #0
 800071e:	d008      	beq.n	8000732 <USART2_IRQHandler+0x82>
		{
			/* Clear the TC Flag by software */
			CLR_BIT(USART_CH[MUSART2]->USART_SR, TC);
 8000720:	4b2f      	ldr	r3, [pc, #188]	; (80007e0 <USART2_IRQHandler+0x130>)
 8000722:	685b      	ldr	r3, [r3, #4]
 8000724:	681a      	ldr	r2, [r3, #0]
 8000726:	4b2e      	ldr	r3, [pc, #184]	; (80007e0 <USART2_IRQHandler+0x130>)
 8000728:	685b      	ldr	r3, [r3, #4]
 800072a:	f022 0240 	bic.w	r2, r2, #64	; 0x40
 800072e:	601a      	str	r2, [r3, #0]
 8000730:	e04f      	b.n	80007d2 <USART2_IRQHandler+0x122>
		}

		/* check if the RXNE is fired */
		else if ((GET_BIT(USART_CH[MUSART2]->USART_SR,RXNE))&&(GET_BIT(USART_CH[MUSART2]->USART_CR1,RXNEmpty_INT)))
 8000732:	4b2b      	ldr	r3, [pc, #172]	; (80007e0 <USART2_IRQHandler+0x130>)
 8000734:	685b      	ldr	r3, [r3, #4]
 8000736:	681b      	ldr	r3, [r3, #0]
 8000738:	095b      	lsrs	r3, r3, #5
 800073a:	f003 0301 	and.w	r3, r3, #1
 800073e:	2b00      	cmp	r3, #0
 8000740:	d00e      	beq.n	8000760 <USART2_IRQHandler+0xb0>
 8000742:	4b27      	ldr	r3, [pc, #156]	; (80007e0 <USART2_IRQHandler+0x130>)
 8000744:	685b      	ldr	r3, [r3, #4]
 8000746:	68db      	ldr	r3, [r3, #12]
 8000748:	095b      	lsrs	r3, r3, #5
 800074a:	f003 0301 	and.w	r3, r3, #1
 800074e:	2b00      	cmp	r3, #0
 8000750:	d006      	beq.n	8000760 <USART2_IRQHandler+0xb0>
		{
			/* receive the data */
			Callback_CH[MUSART2].copy_u8Rxdata = (u8*)USART_CH[MUSART1]->USART_DR ;
 8000752:	4b23      	ldr	r3, [pc, #140]	; (80007e0 <USART2_IRQHandler+0x130>)
 8000754:	681b      	ldr	r3, [r3, #0]
 8000756:	685b      	ldr	r3, [r3, #4]
 8000758:	461a      	mov	r2, r3
 800075a:	4b20      	ldr	r3, [pc, #128]	; (80007dc <USART2_IRQHandler+0x12c>)
 800075c:	60da      	str	r2, [r3, #12]
 800075e:	e038      	b.n	80007d2 <USART2_IRQHandler+0x122>
		}

		/* check if the parity error Interrupt is fired */
		else if ((GET_BIT(USART_CH[MUSART2]->USART_SR,PE))&&(GET_BIT(USART_CH[MUSART2]->USART_CR1,ParityEror_INT)))
 8000760:	4b1f      	ldr	r3, [pc, #124]	; (80007e0 <USART2_IRQHandler+0x130>)
 8000762:	685b      	ldr	r3, [r3, #4]
 8000764:	681b      	ldr	r3, [r3, #0]
 8000766:	f003 0301 	and.w	r3, r3, #1
 800076a:	2b00      	cmp	r3, #0
 800076c:	d007      	beq.n	800077e <USART2_IRQHandler+0xce>
 800076e:	4b1c      	ldr	r3, [pc, #112]	; (80007e0 <USART2_IRQHandler+0x130>)
 8000770:	685b      	ldr	r3, [r3, #4]
 8000772:	68db      	ldr	r3, [r3, #12]
 8000774:	0a1b      	lsrs	r3, r3, #8
 8000776:	f003 0301 	and.w	r3, r3, #1
 800077a:	2b00      	cmp	r3, #0
 800077c:	d129      	bne.n	80007d2 <USART2_IRQHandler+0x122>
		{

		}

		/* check if the frame error Interrupt is fired */
		else if ((GET_BIT(USART_CH[MUSART2]->USART_SR,FE))&&(GET_BIT(USART_CH[MUSART2]->USART_CR3,Error_INT)))
 800077e:	4b18      	ldr	r3, [pc, #96]	; (80007e0 <USART2_IRQHandler+0x130>)
 8000780:	685b      	ldr	r3, [r3, #4]
 8000782:	681b      	ldr	r3, [r3, #0]
 8000784:	085b      	lsrs	r3, r3, #1
 8000786:	f003 0301 	and.w	r3, r3, #1
 800078a:	2b00      	cmp	r3, #0
 800078c:	d006      	beq.n	800079c <USART2_IRQHandler+0xec>
 800078e:	4b14      	ldr	r3, [pc, #80]	; (80007e0 <USART2_IRQHandler+0x130>)
 8000790:	685b      	ldr	r3, [r3, #4]
 8000792:	695b      	ldr	r3, [r3, #20]
 8000794:	f003 0301 	and.w	r3, r3, #1
 8000798:	2b00      	cmp	r3, #0
 800079a:	d11a      	bne.n	80007d2 <USART2_IRQHandler+0x122>
		{

		}

		/* check if the overrun error Interrupt is fired */
		else if ((GET_BIT(USART_CH[MUSART2]->USART_SR,ORE))&&(GET_BIT(USART_CH[MUSART2]->USART_CR1,RXNEmpty_INT)))
 800079c:	4b10      	ldr	r3, [pc, #64]	; (80007e0 <USART2_IRQHandler+0x130>)
 800079e:	685b      	ldr	r3, [r3, #4]
 80007a0:	681b      	ldr	r3, [r3, #0]
 80007a2:	08db      	lsrs	r3, r3, #3
 80007a4:	f003 0301 	and.w	r3, r3, #1
 80007a8:	2b00      	cmp	r3, #0
 80007aa:	d007      	beq.n	80007bc <USART2_IRQHandler+0x10c>
 80007ac:	4b0c      	ldr	r3, [pc, #48]	; (80007e0 <USART2_IRQHandler+0x130>)
 80007ae:	685b      	ldr	r3, [r3, #4]
 80007b0:	68db      	ldr	r3, [r3, #12]
 80007b2:	095b      	lsrs	r3, r3, #5
 80007b4:	f003 0301 	and.w	r3, r3, #1
 80007b8:	2b00      	cmp	r3, #0
 80007ba:	d10a      	bne.n	80007d2 <USART2_IRQHandler+0x122>
		{

		}

		/* check if the noise error Interrupt is fired */
		else if ((GET_BIT(USART_CH[MUSART2]->USART_SR,NE))&&(GET_BIT(USART_CH[MUSART2]->USART_CR3,Error_INT)))
 80007bc:	4b08      	ldr	r3, [pc, #32]	; (80007e0 <USART2_IRQHandler+0x130>)
 80007be:	685b      	ldr	r3, [r3, #4]
 80007c0:	681b      	ldr	r3, [r3, #0]
 80007c2:	089b      	lsrs	r3, r3, #2
 80007c4:	f003 0301 	and.w	r3, r3, #1
 80007c8:	2b00      	cmp	r3, #0
 80007ca:	d002      	beq.n	80007d2 <USART2_IRQHandler+0x122>
 80007cc:	4b04      	ldr	r3, [pc, #16]	; (80007e0 <USART2_IRQHandler+0x130>)
 80007ce:	685b      	ldr	r3, [r3, #4]
 80007d0:	695b      	ldr	r3, [r3, #20]
		{

		}

		/* perform Action Callback */
		Callback_CH[MUSART2].TxRx_callback();
 80007d2:	4b02      	ldr	r3, [pc, #8]	; (80007dc <USART2_IRQHandler+0x12c>)
 80007d4:	695b      	ldr	r3, [r3, #20]
 80007d6:	4798      	blx	r3
	}
}
 80007d8:	bf00      	nop
 80007da:	bd80      	pop	{r7, pc}
 80007dc:	200000b0 	.word	0x200000b0
 80007e0:	20000008 	.word	0x20000008

080007e4 <USART3_IRQHandler>:

void USART3_IRQHandler (void)
{
 80007e4:	b580      	push	{r7, lr}
 80007e6:	af00      	add	r7, sp, #0
	if (Callback_CH[MUSART3].TxRx_callback != NULL)
 80007e8:	4b49      	ldr	r3, [pc, #292]	; (8000910 <USART3_IRQHandler+0x12c>)
 80007ea:	6a1b      	ldr	r3, [r3, #32]
 80007ec:	2b00      	cmp	r3, #0
 80007ee:	f000 808d 	beq.w	800090c <USART3_IRQHandler+0x128>
	{
		/* check if the IDLE Interrupt is fired */
		if ((GET_BIT(USART_CH[MUSART3]->USART_SR,IDLE))&&(GET_BIT(USART_CH[MUSART3]->USART_CR1,IDLE_INT)))
 80007f2:	4b48      	ldr	r3, [pc, #288]	; (8000914 <USART3_IRQHandler+0x130>)
 80007f4:	689b      	ldr	r3, [r3, #8]
 80007f6:	681b      	ldr	r3, [r3, #0]
 80007f8:	091b      	lsrs	r3, r3, #4
 80007fa:	f003 0301 	and.w	r3, r3, #1
 80007fe:	2b00      	cmp	r3, #0
 8000800:	d002      	beq.n	8000808 <USART3_IRQHandler+0x24>
 8000802:	4b44      	ldr	r3, [pc, #272]	; (8000914 <USART3_IRQHandler+0x130>)
 8000804:	689b      	ldr	r3, [r3, #8]
 8000806:	68db      	ldr	r3, [r3, #12]
		{

		}

		/* check if the TXE is fired */
		if ((GET_BIT(USART_CH[MUSART3]->USART_SR,TXE))&&(GET_BIT(USART_CH[MUSART3]->USART_CR1,TXEmpty_INT)))
 8000808:	4b42      	ldr	r3, [pc, #264]	; (8000914 <USART3_IRQHandler+0x130>)
 800080a:	689b      	ldr	r3, [r3, #8]
 800080c:	681b      	ldr	r3, [r3, #0]
 800080e:	09db      	lsrs	r3, r3, #7
 8000810:	f003 0301 	and.w	r3, r3, #1
 8000814:	2b00      	cmp	r3, #0
 8000816:	d00d      	beq.n	8000834 <USART3_IRQHandler+0x50>
 8000818:	4b3e      	ldr	r3, [pc, #248]	; (8000914 <USART3_IRQHandler+0x130>)
 800081a:	689b      	ldr	r3, [r3, #8]
 800081c:	68db      	ldr	r3, [r3, #12]
 800081e:	09db      	lsrs	r3, r3, #7
 8000820:	f003 0301 	and.w	r3, r3, #1
 8000824:	2b00      	cmp	r3, #0
 8000826:	d005      	beq.n	8000834 <USART3_IRQHandler+0x50>
		{
			/* transmit the data */
			USART_CH[MUSART3]->USART_DR = Callback_CH[MUSART3].copy_u8Txdata;
 8000828:	4b39      	ldr	r3, [pc, #228]	; (8000910 <USART3_IRQHandler+0x12c>)
 800082a:	7f1a      	ldrb	r2, [r3, #28]
 800082c:	4b39      	ldr	r3, [pc, #228]	; (8000914 <USART3_IRQHandler+0x130>)
 800082e:	689b      	ldr	r3, [r3, #8]
 8000830:	605a      	str	r2, [r3, #4]
 8000832:	e068      	b.n	8000906 <USART3_IRQHandler+0x122>
		}

		else if ((GET_BIT(USART_CH[MUSART3]->USART_SR,TC))&&(GET_BIT(USART_CH[MUSART3]->USART_CR1,TXCompelete_INT)))
 8000834:	4b37      	ldr	r3, [pc, #220]	; (8000914 <USART3_IRQHandler+0x130>)
 8000836:	689b      	ldr	r3, [r3, #8]
 8000838:	681b      	ldr	r3, [r3, #0]
 800083a:	099b      	lsrs	r3, r3, #6
 800083c:	f003 0301 	and.w	r3, r3, #1
 8000840:	2b00      	cmp	r3, #0
 8000842:	d010      	beq.n	8000866 <USART3_IRQHandler+0x82>
 8000844:	4b33      	ldr	r3, [pc, #204]	; (8000914 <USART3_IRQHandler+0x130>)
 8000846:	689b      	ldr	r3, [r3, #8]
 8000848:	68db      	ldr	r3, [r3, #12]
 800084a:	099b      	lsrs	r3, r3, #6
 800084c:	f003 0301 	and.w	r3, r3, #1
 8000850:	2b00      	cmp	r3, #0
 8000852:	d008      	beq.n	8000866 <USART3_IRQHandler+0x82>
		{
			/* Clear the TC Flag by software */
			CLR_BIT(USART_CH[MUSART3]->USART_SR, TC);
 8000854:	4b2f      	ldr	r3, [pc, #188]	; (8000914 <USART3_IRQHandler+0x130>)
 8000856:	689b      	ldr	r3, [r3, #8]
 8000858:	681a      	ldr	r2, [r3, #0]
 800085a:	4b2e      	ldr	r3, [pc, #184]	; (8000914 <USART3_IRQHandler+0x130>)
 800085c:	689b      	ldr	r3, [r3, #8]
 800085e:	f022 0240 	bic.w	r2, r2, #64	; 0x40
 8000862:	601a      	str	r2, [r3, #0]
 8000864:	e04f      	b.n	8000906 <USART3_IRQHandler+0x122>
		}

		/* check if the RXNE is fired */
		else if ((GET_BIT(USART_CH[MUSART3]->USART_SR,RXNE))&&(GET_BIT(USART_CH[MUSART3]->USART_CR1,RXNEmpty_INT)))
 8000866:	4b2b      	ldr	r3, [pc, #172]	; (8000914 <USART3_IRQHandler+0x130>)
 8000868:	689b      	ldr	r3, [r3, #8]
 800086a:	681b      	ldr	r3, [r3, #0]
 800086c:	095b      	lsrs	r3, r3, #5
 800086e:	f003 0301 	and.w	r3, r3, #1
 8000872:	2b00      	cmp	r3, #0
 8000874:	d00e      	beq.n	8000894 <USART3_IRQHandler+0xb0>
 8000876:	4b27      	ldr	r3, [pc, #156]	; (8000914 <USART3_IRQHandler+0x130>)
 8000878:	689b      	ldr	r3, [r3, #8]
 800087a:	68db      	ldr	r3, [r3, #12]
 800087c:	095b      	lsrs	r3, r3, #5
 800087e:	f003 0301 	and.w	r3, r3, #1
 8000882:	2b00      	cmp	r3, #0
 8000884:	d006      	beq.n	8000894 <USART3_IRQHandler+0xb0>
		{
			/* receive the data */
			Callback_CH[MUSART3].copy_u8Rxdata = (u8*)USART_CH[MUSART1]->USART_DR ;
 8000886:	4b23      	ldr	r3, [pc, #140]	; (8000914 <USART3_IRQHandler+0x130>)
 8000888:	681b      	ldr	r3, [r3, #0]
 800088a:	685b      	ldr	r3, [r3, #4]
 800088c:	461a      	mov	r2, r3
 800088e:	4b20      	ldr	r3, [pc, #128]	; (8000910 <USART3_IRQHandler+0x12c>)
 8000890:	619a      	str	r2, [r3, #24]
 8000892:	e038      	b.n	8000906 <USART3_IRQHandler+0x122>
		}

		/* check if the parity error Interrupt is fired */
		else if ((GET_BIT(USART_CH[MUSART3]->USART_SR,PE))&&(GET_BIT(USART_CH[MUSART3]->USART_CR1,ParityEror_INT)))
 8000894:	4b1f      	ldr	r3, [pc, #124]	; (8000914 <USART3_IRQHandler+0x130>)
 8000896:	689b      	ldr	r3, [r3, #8]
 8000898:	681b      	ldr	r3, [r3, #0]
 800089a:	f003 0301 	and.w	r3, r3, #1
 800089e:	2b00      	cmp	r3, #0
 80008a0:	d007      	beq.n	80008b2 <USART3_IRQHandler+0xce>
 80008a2:	4b1c      	ldr	r3, [pc, #112]	; (8000914 <USART3_IRQHandler+0x130>)
 80008a4:	689b      	ldr	r3, [r3, #8]
 80008a6:	68db      	ldr	r3, [r3, #12]
 80008a8:	0a1b      	lsrs	r3, r3, #8
 80008aa:	f003 0301 	and.w	r3, r3, #1
 80008ae:	2b00      	cmp	r3, #0
 80008b0:	d129      	bne.n	8000906 <USART3_IRQHandler+0x122>
		{

		}

		/* check if the frame error Interrupt is fired */
		else if ((GET_BIT(USART_CH[MUSART3]->USART_SR,FE))&&(GET_BIT(USART_CH[MUSART3]->USART_CR3,Error_INT)))
 80008b2:	4b18      	ldr	r3, [pc, #96]	; (8000914 <USART3_IRQHandler+0x130>)
 80008b4:	689b      	ldr	r3, [r3, #8]
 80008b6:	681b      	ldr	r3, [r3, #0]
 80008b8:	085b      	lsrs	r3, r3, #1
 80008ba:	f003 0301 	and.w	r3, r3, #1
 80008be:	2b00      	cmp	r3, #0
 80008c0:	d006      	beq.n	80008d0 <USART3_IRQHandler+0xec>
 80008c2:	4b14      	ldr	r3, [pc, #80]	; (8000914 <USART3_IRQHandler+0x130>)
 80008c4:	689b      	ldr	r3, [r3, #8]
 80008c6:	695b      	ldr	r3, [r3, #20]
 80008c8:	f003 0301 	and.w	r3, r3, #1
 80008cc:	2b00      	cmp	r3, #0
 80008ce:	d11a      	bne.n	8000906 <USART3_IRQHandler+0x122>


		}

		/* check if the overrun error Interrupt is fired */
		else if ((GET_BIT(USART_CH[MUSART3]->USART_SR,ORE))&&(GET_BIT(USART_CH[MUSART3]->USART_CR1,RXNEmpty_INT)))
 80008d0:	4b10      	ldr	r3, [pc, #64]	; (8000914 <USART3_IRQHandler+0x130>)
 80008d2:	689b      	ldr	r3, [r3, #8]
 80008d4:	681b      	ldr	r3, [r3, #0]
 80008d6:	08db      	lsrs	r3, r3, #3
 80008d8:	f003 0301 	and.w	r3, r3, #1
 80008dc:	2b00      	cmp	r3, #0
 80008de:	d007      	beq.n	80008f0 <USART3_IRQHandler+0x10c>
 80008e0:	4b0c      	ldr	r3, [pc, #48]	; (8000914 <USART3_IRQHandler+0x130>)
 80008e2:	689b      	ldr	r3, [r3, #8]
 80008e4:	68db      	ldr	r3, [r3, #12]
 80008e6:	095b      	lsrs	r3, r3, #5
 80008e8:	f003 0301 	and.w	r3, r3, #1
 80008ec:	2b00      	cmp	r3, #0
 80008ee:	d10a      	bne.n	8000906 <USART3_IRQHandler+0x122>
		{

		}

		/* check if the noise error Interrupt is fired */
		else if ((GET_BIT(USART_CH[MUSART3]->USART_SR,NE))&&(GET_BIT(USART_CH[MUSART3]->USART_CR3,Error_INT)))
 80008f0:	4b08      	ldr	r3, [pc, #32]	; (8000914 <USART3_IRQHandler+0x130>)
 80008f2:	689b      	ldr	r3, [r3, #8]
 80008f4:	681b      	ldr	r3, [r3, #0]
 80008f6:	089b      	lsrs	r3, r3, #2
 80008f8:	f003 0301 	and.w	r3, r3, #1
 80008fc:	2b00      	cmp	r3, #0
 80008fe:	d002      	beq.n	8000906 <USART3_IRQHandler+0x122>
 8000900:	4b04      	ldr	r3, [pc, #16]	; (8000914 <USART3_IRQHandler+0x130>)
 8000902:	689b      	ldr	r3, [r3, #8]
 8000904:	695b      	ldr	r3, [r3, #20]
		{

		}

		/* perform Action Callback */
		Callback_CH[MUSART3].TxRx_callback();
 8000906:	4b02      	ldr	r3, [pc, #8]	; (8000910 <USART3_IRQHandler+0x12c>)
 8000908:	6a1b      	ldr	r3, [r3, #32]
 800090a:	4798      	blx	r3
	}
}
 800090c:	bf00      	nop
 800090e:	bd80      	pop	{r7, pc}
 8000910:	200000b0 	.word	0x200000b0
 8000914:	20000008 	.word	0x20000008

08000918 <main>:
/****************************************************************/

#include "App_int.h"

int main(void)
{
 8000918:	b580      	push	{r7, lr}
 800091a:	af00      	add	r7, sp, #0
	App_voidstartApp();
 800091c:	f7ff fc28 	bl	8000170 <App_voidstartApp>
 8000920:	2300      	movs	r3, #0
}
 8000922:	4618      	mov	r0, r3
 8000924:	bd80      	pop	{r7, pc}
	...

08000928 <Reset_Handler>:

  .section .text.Reset_Handler
  .weak Reset_Handler
  .type Reset_Handler, %function
Reset_Handler:
  ldr   r0, =_estack
 8000928:	480d      	ldr	r0, [pc, #52]	; (8000960 <LoopForever+0x2>)
  mov   sp, r0          /* set stack pointer */
 800092a:	4685      	mov	sp, r0
/* Call the clock system intitialization function.*/
  bl  SystemInit
 800092c:	f3af 8000 	nop.w

/* Copy the data segment initializers from flash to SRAM */
  ldr r0, =_sdata
 8000930:	480c      	ldr	r0, [pc, #48]	; (8000964 <LoopForever+0x6>)
  ldr r1, =_edata
 8000932:	490d      	ldr	r1, [pc, #52]	; (8000968 <LoopForever+0xa>)
  ldr r2, =_sidata
 8000934:	4a0d      	ldr	r2, [pc, #52]	; (800096c <LoopForever+0xe>)
  movs r3, #0
 8000936:	2300      	movs	r3, #0
  b LoopCopyDataInit
 8000938:	e002      	b.n	8000940 <LoopCopyDataInit>

0800093a <CopyDataInit>:

CopyDataInit:
  ldr r4, [r2, r3]
 800093a:	58d4      	ldr	r4, [r2, r3]
  str r4, [r0, r3]
 800093c:	50c4      	str	r4, [r0, r3]
  adds r3, r3, #4
 800093e:	3304      	adds	r3, #4

08000940 <LoopCopyDataInit>:

LoopCopyDataInit:
  adds r4, r0, r3
 8000940:	18c4      	adds	r4, r0, r3
  cmp r4, r1
 8000942:	428c      	cmp	r4, r1
  bcc CopyDataInit
 8000944:	d3f9      	bcc.n	800093a <CopyDataInit>

/* Zero fill the bss segment. */
  ldr r2, =_sbss
 8000946:	4a0a      	ldr	r2, [pc, #40]	; (8000970 <LoopForever+0x12>)
  ldr r4, =_ebss
 8000948:	4c0a      	ldr	r4, [pc, #40]	; (8000974 <LoopForever+0x16>)
  movs r3, #0
 800094a:	2300      	movs	r3, #0
  b LoopFillZerobss
 800094c:	e001      	b.n	8000952 <LoopFillZerobss>

0800094e <FillZerobss>:

FillZerobss:
  str  r3, [r2]
 800094e:	6013      	str	r3, [r2, #0]
  adds r2, r2, #4
 8000950:	3204      	adds	r2, #4

08000952 <LoopFillZerobss>:

LoopFillZerobss:
  cmp r2, r4
 8000952:	42a2      	cmp	r2, r4
  bcc FillZerobss
 8000954:	d3fb      	bcc.n	800094e <FillZerobss>

/* Call static constructors */
  bl __libc_init_array
 8000956:	f000 f811 	bl	800097c <__libc_init_array>
/* Call the application's entry point.*/
  bl main
 800095a:	f7ff ffdd 	bl	8000918 <main>

0800095e <LoopForever>:

LoopForever:
    b LoopForever
 800095e:	e7fe      	b.n	800095e <LoopForever>
  ldr   r0, =_estack
 8000960:	20005000 	.word	0x20005000
  ldr r0, =_sdata
 8000964:	20000000 	.word	0x20000000
  ldr r1, =_edata
 8000968:	20000014 	.word	0x20000014
  ldr r2, =_sidata
 800096c:	080009e4 	.word	0x080009e4
  ldr r2, =_sbss
 8000970:	20000014 	.word	0x20000014
  ldr r4, =_ebss
 8000974:	200000d8 	.word	0x200000d8

08000978 <ADC3_IRQHandler>:
 * @retval : None
*/
  .section .text.Default_Handler,"ax",%progbits
Default_Handler:
Infinite_Loop:
  b Infinite_Loop
 8000978:	e7fe      	b.n	8000978 <ADC3_IRQHandler>
	...

0800097c <__libc_init_array>:
 800097c:	b570      	push	{r4, r5, r6, lr}
 800097e:	2600      	movs	r6, #0
 8000980:	4d0c      	ldr	r5, [pc, #48]	; (80009b4 <__libc_init_array+0x38>)
 8000982:	4c0d      	ldr	r4, [pc, #52]	; (80009b8 <__libc_init_array+0x3c>)
 8000984:	1b64      	subs	r4, r4, r5
 8000986:	10a4      	asrs	r4, r4, #2
 8000988:	42a6      	cmp	r6, r4
 800098a:	d109      	bne.n	80009a0 <__libc_init_array+0x24>
 800098c:	f000 f81a 	bl	80009c4 <_init>
 8000990:	2600      	movs	r6, #0
 8000992:	4d0a      	ldr	r5, [pc, #40]	; (80009bc <__libc_init_array+0x40>)
 8000994:	4c0a      	ldr	r4, [pc, #40]	; (80009c0 <__libc_init_array+0x44>)
 8000996:	1b64      	subs	r4, r4, r5
 8000998:	10a4      	asrs	r4, r4, #2
 800099a:	42a6      	cmp	r6, r4
 800099c:	d105      	bne.n	80009aa <__libc_init_array+0x2e>
 800099e:	bd70      	pop	{r4, r5, r6, pc}
 80009a0:	f855 3b04 	ldr.w	r3, [r5], #4
 80009a4:	4798      	blx	r3
 80009a6:	3601      	adds	r6, #1
 80009a8:	e7ee      	b.n	8000988 <__libc_init_array+0xc>
 80009aa:	f855 3b04 	ldr.w	r3, [r5], #4
 80009ae:	4798      	blx	r3
 80009b0:	3601      	adds	r6, #1
 80009b2:	e7f2      	b.n	800099a <__libc_init_array+0x1e>
 80009b4:	080009dc 	.word	0x080009dc
 80009b8:	080009dc 	.word	0x080009dc
 80009bc:	080009dc 	.word	0x080009dc
 80009c0:	080009e0 	.word	0x080009e0

080009c4 <_init>:
 80009c4:	b5f8      	push	{r3, r4, r5, r6, r7, lr}
 80009c6:	bf00      	nop
 80009c8:	bcf8      	pop	{r3, r4, r5, r6, r7}
 80009ca:	bc08      	pop	{r3}
 80009cc:	469e      	mov	lr, r3
 80009ce:	4770      	bx	lr

080009d0 <_fini>:
 80009d0:	b5f8      	push	{r3, r4, r5, r6, r7, lr}
 80009d2:	bf00      	nop
 80009d4:	bcf8      	pop	{r3, r4, r5, r6, r7}
 80009d6:	bc08      	pop	{r3}
 80009d8:	469e      	mov	lr, r3
 80009da:	4770      	bx	lr
